; Function Attrs: mustprogress nounwind uwtable
define dso_local noundef zeroext i1 @_ZNK4llvm16FoldingSetNodeIDeqERKS0_(ptr noundef nonnull align 8 dereferenceable(144) %0, ptr noundef nonnull align 8 dereferenceable(144) %1) local_unnamed_addr #2 align 2 {
  %3 = load ptr, ptr %1, align 8
  %4 = tail call noundef i64 @_ZNK4llvm15SmallVectorBaseIjE4sizeEv(ptr noundef nonnull align 8 dereferenceable(16) %1) #21
  %5 = load ptr, ptr %0, align 8
  %6 = tail call noundef i64 @_ZNK4llvm15SmallVectorBaseIjE4sizeEv(ptr noundef nonnull align 8 dereferenceable(16) %0) #21
  %.not.i.i = icmp eq i64 %6, %4
  br i1 %.not.i.i, label %7, label %_ZNK4llvm16FoldingSetNodeIDeqENS_19FoldingSetNodeIDRefE.exit

7:                                                ; preds = %2
  %8 = shl i64 %4, 2
  %bcmp.i.i = tail call i32 @bcmp(ptr %5, ptr readonly %3, i64 %8)
  %9 = icmp eq i32 %bcmp.i.i, 0
  br label %_ZNK4llvm16FoldingSetNodeIDeqENS_19FoldingSetNodeIDRefE.exit

_ZNK4llvm16FoldingSetNodeIDeqENS_19FoldingSetNodeIDRefE.exit: ; preds = %2, %7
  %.0.i.i = phi i1 [ %9, %7 ], [ false, %2 ]
  ret i1 %.0.i.i
}